(imodel
iSprinkleModel
p0
(dp1
S'status'
p2
(imodel
iSprinkleStatus
p3
(dp4
S'active_watering'
p5
(imodel
iSprinkleWatering
p6
(dp7
S'period_days'
p8
I3
sS'zone_durations'
p9
(lp10
(I1
I8
tp11
a(I3
I8
tp12
a(I4
I5
tp13
a(I7
I8
tp14
a(I5
I5
tp15
a(I8
I8
tp16
a(I6
I5
tp17
a(I10
I8
tp18
a(I1
I8
tp19
a(I3
I8
tp20
a(I4
I5
tp21
a(I7
I8
tp22
a(I5
I5
tp23
a(I8
I8
tp24
a(I6
I5
tp25
a(I10
I8
tp26
asS'uuid'
p27
S'e68e8633-27a9-400b-abe1-5468d2937a84'
p28
sS'start_time'
p29
cdatetime
time
p30
(S'\x06\x1e\x00\x00\x00\x00'
p31
tp32
Rp33
sS'enabled'
p34
I01
sS'schedule_type'
p35
I0
sS'days_of_week_mask'
p36
NsS'start_date'
p37
NsbsS'active_zone_number'
p38
I10
sS'zone_start_time'
p39
cdatetime
datetime
p40
(S'\x07\xda\n\x16\x07\x11\x00\x07\x8f\xc5'
p41
tp42
Rp43
sS'in_deferral_period'
p44
I00
sbsS'waterings'
p45
(lp46
(imodel
iSprinkleWatering
p47
(dp48
g8
I3
sg9
(lp49
(I2
I10
tp50
a(I9
I10
tp51
asg27
S'b31ce52c-8662-4977-a010-32bc00baf786'
p52
sg29
g30
(S'\x06\x00\x00\x00\x00\x00'
p53
tp54
Rp55
sg34
I01
sg35
I0
sg36
Nsg37
Nsbag6
a(imodel
iSprinkleWatering
p56
(dp57
g8
Nsg9
(lp58
(I1
I8
tp59
a(I3
I8
tp60
a(I4
I5
tp61
a(I7
I8
tp62
a(I5
I5
tp63
a(I8
I8
tp64
a(I6
I5
tp65
a(I10
I8
tp66
a(I1
I8
tp67
a(I3
I8
tp68
a(I4
I5
tp69
a(I7
I8
tp70
a(I5
I5
tp71
a(I8
I8
tp72
a(I6
I5
tp73
a(I10
I8
tp74
asg27
S'dc026b89-c47f-46ce-b3c4-884dfad3014a'
p75
sg29
g30
(S'\x12, \x08\xeb/'
p76
tp77
Rp78
sg34
I01
sg35
I2
sg36
Nsg37
cdatetime
date
p79
(S'\x07\xda\n\t'
p80
tp81
Rp82
sbasS'deferral_datetime'
p83
g40
(S'\x07\xdb\x05\x01\x00\x00\x00\x00\x00\x00'
p84
tp85
Rp86
sb.